target datalayout = "e-m:e-p270:32:32-p271:32:32-p272:64:64-i64:64-i128:128-f80:128-n8:16:32:64-S128"
target triple = "x86_64-pc-linux-gnu"

%struct.OnigMatchParamStruct = type { i32, i64, i64, ptr, ptr, ptr, i32, ptr, i32 }
%struct.OnigCalloutArgsStruct = type { i32, i32, i32, ptr, ptr, ptr, ptr, ptr, ptr, i64, ptr, ptr, ptr, ptr, ptr }
%struct.MatchArg = type { ptr, i32, i32, ptr, i32, ptr, i32, i64, i64, i64, ptr, i32, ptr, i64 }
%struct.CalloutData = type { i32, [5 x %struct.anon] }
%struct.anon = type { i32, %union.OnigValue }
%union.OnigValue = type { %struct.anon.0 }
%struct.anon.0 = type { ptr, ptr }
%struct.CalloutListEntry = type { i32, i32, i32, i32, ptr, ptr, i32, ptr, ptr, %union.anon }
%union.anon = type { %struct.anon.2 }
%struct.anon.2 = type { i32, i32, [4 x i32], [4 x %union.OnigValue] }

; Function Attrs: nounwind uwtable
define dso_local i32 @onig_set_callout_data(ptr noundef %0, ptr noundef %1, i32 noundef %2, i32 noundef %3, i32 noundef %4, ptr noundef %5) #0 {
  %7 = alloca i32, align 4
  %8 = alloca ptr, align 8
  %9 = alloca ptr, align 8
  %10 = alloca i32, align 4
  %11 = alloca i32, align 4
  %12 = alloca i32, align 4
  %13 = alloca ptr, align 8
  %14 = alloca ptr, align 8
  %15 = alloca i32, align 4
  store ptr %0, ptr %8, align 8, !tbaa !57
  store ptr %1, ptr %9, align 8, !tbaa !4
  store i32 %2, ptr %10, align 4, !tbaa !9
  store i32 %3, ptr %11, align 4, !tbaa !9
  store i32 %4, ptr %12, align 4, !tbaa !9
  store ptr %5, ptr %13, align 8, !tbaa !17
  call void @llvm.lifetime.start.p0(i64 8, ptr %14) #9
  %16 = load i32, ptr %10, align 4, !tbaa !9
  %17 = icmp sle i32 %16, 0
  br i1 %17, label %18, label %19

18:                                               ; preds = %6
  store i32 -30, ptr %7, align 4
  store i32 1, ptr %15, align 4
  br label %46

19:                                               ; preds = %6
  %20 = load ptr, ptr %9, align 8, !tbaa !4
  %21 = getelementptr inbounds nuw %struct.OnigMatchParamStruct, ptr %20, i32 0, i32 7
  %22 = load ptr, ptr %21, align 8, !tbaa !43
  %23 = load i32, ptr %10, align 4, !tbaa !9
  %24 = sub nsw i32 %23, 1
  %25 = sext i32 %24 to i64
  %26 = getelementptr inbounds %struct.CalloutData, ptr %22, i64 %25
  store ptr %26, ptr %14, align 8, !tbaa !17
  %27 = load i32, ptr %12, align 4, !tbaa !9
  %28 = load ptr, ptr %14, align 8, !tbaa !17
  %29 = getelementptr inbounds nuw %struct.CalloutData, ptr %28, i32 0, i32 1
  %30 = load i32, ptr %11, align 4, !tbaa !9
  %31 = sext i32 %30 to i64
  %32 = getelementptr inbounds [5 x %struct.anon], ptr %29, i64 0, i64 %31
  %33 = getelementptr inbounds nuw %struct.anon, ptr %32, i32 0, i32 0
  store i32 %27, ptr %33, align 8, !tbaa !55
  %34 = load ptr, ptr %14, align 8, !tbaa !17
  %35 = getelementptr inbounds nuw %struct.CalloutData, ptr %34, i32 0, i32 1
  %36 = load i32, ptr %11, align 4, !tbaa !9
  %37 = sext i32 %36 to i64
  %38 = getelementptr inbounds [5 x %struct.anon], ptr %35, i64 0, i64 %37
  %39 = getelementptr inbounds nuw %struct.anon, ptr %38, i32 0, i32 1
  %40 = load ptr, ptr %13, align 8, !tbaa !17
  call void @llvm.memcpy.p0.p0.i64(ptr align 8 %39, ptr align 8 %40, i64 16, i1 false), !tbaa.struct !58
  %41 = load ptr, ptr %9, align 8, !tbaa !4
  %42 = getelementptr inbounds nuw %struct.OnigMatchParamStruct, ptr %41, i32 0, i32 6
  %43 = load i32, ptr %42, align 8, !tbaa !42
  %44 = load ptr, ptr %14, align 8, !tbaa !17
  %45 = getelementptr inbounds nuw %struct.CalloutData, ptr %44, i32 0, i32 0
  store i32 %43, ptr %45, align 8, !tbaa !55
  store i32 0, ptr %7, align 4
  store i32 1, ptr %15, align 4
  br label %46

46:                                               ; preds = %19, %18
  call void @llvm.lifetime.end.p0(i64 8, ptr %14) #9
  %47 = load i32, ptr %7, align 4
  ret i32 %47
}

; Function Attrs: nounwind uwtable
define dso_local i32 @onig_get_callout_data_dont_clear_old(ptr noundef %0, ptr noundef %1, i32 noundef %2, i32 noundef %3, ptr noundef %4, ptr noundef %5) #0 {
  %7 = alloca i32, align 4
  %8 = alloca ptr, align 8
  %9 = alloca ptr, align 8
  %10 = alloca i32, align 4
  %11 = alloca i32, align 4
  %12 = alloca ptr, align 8
  %13 = alloca ptr, align 8
  %14 = alloca i32, align 4
  %15 = alloca ptr, align 8
  %16 = alloca i32, align 4
  store ptr %0, ptr %8, align 8, !tbaa !57
  store ptr %1, ptr %9, align 8, !tbaa !4
  store i32 %2, ptr %10, align 4, !tbaa !9
  store i32 %3, ptr %11, align 4, !tbaa !9
  store ptr %4, ptr %12, align 8, !tbaa !17
  store ptr %5, ptr %13, align 8, !tbaa !17
  call void @llvm.lifetime.start.p0(i64 4, ptr %14) #9
  call void @llvm.lifetime.start.p0(i64 8, ptr %15) #9
  %17 = load i32, ptr %10, align 4, !tbaa !9
  %18 = icmp sle i32 %17, 0
  br i1 %18, label %19, label %20

19:                                               ; preds = %6
  store i32 -30, ptr %7, align 4
  store i32 1, ptr %16, align 4
  br label %55

20:                                               ; preds = %6
  %21 = load ptr, ptr %9, align 8, !tbaa !4
  %22 = getelementptr inbounds nuw %struct.OnigMatchParamStruct, ptr %21, i32 0, i32 7
  %23 = load ptr, ptr %22, align 8, !tbaa !43
  %24 = load i32, ptr %10, align 4, !tbaa !9
  %25 = sub nsw i32 %24, 1
  %26 = sext i32 %25 to i64
  %27 = getelementptr inbounds %struct.CalloutData, ptr %23, i64 %26
  store ptr %27, ptr %15, align 8, !tbaa !17
  %28 = load ptr, ptr %15, align 8, !tbaa !17
  %29 = getelementptr inbounds nuw %struct.CalloutData, ptr %28, i32 0, i32 1
  %30 = load i32, ptr %11, align 4, !tbaa !9
  %31 = sext i32 %30 to i64
  %32 = getelementptr inbounds [5 x %struct.anon], ptr %29, i64 0, i64 %31
  %33 = getelementptr inbounds nuw %struct.anon, ptr %32, i32 0, i32 0
  %34 = load i32, ptr %33, align 8, !tbaa !55
  store i32 %34, ptr %14, align 4, !tbaa !9
  %35 = load ptr, ptr %12, align 8, !tbaa !17
  %36 = icmp ne ptr %35, null
  br i1 %36, label %37, label %40

37:                                               ; preds = %20
  %38 = load i32, ptr %14, align 4, !tbaa !9
  %39 = load ptr, ptr %12, align 8, !tbaa !17
  store i32 %38, ptr %39, align 4, !tbaa !9
  br label %40

40:                                               ; preds = %37, %20
  %41 = load ptr, ptr %13, align 8, !tbaa !17
  %42 = icmp ne ptr %41, null
  br i1 %42, label %43, label %51

43:                                               ; preds = %40
  %44 = load ptr, ptr %13, align 8, !tbaa !17
  %45 = load ptr, ptr %15, align 8, !tbaa !17
  %46 = getelementptr inbounds nuw %struct.CalloutData, ptr %45, i32 0, i32 1
  %47 = load i32, ptr %11, align 4, !tbaa !9
  %48 = sext i32 %47 to i64
  %49 = getelementptr inbounds [5 x %struct.anon], ptr %46, i64 0, i64 %48
  %50 = getelementptr inbounds nuw %struct.anon, ptr %49, i32 0, i32 1
  call void @llvm.memcpy.p0.p0.i64(ptr align 8 %44, ptr align 8 %50, i64 16, i1 false), !tbaa.struct !58
  br label %51

51:                                               ; preds = %43, %40
  %52 = load i32, ptr %14, align 4, !tbaa !9
  %53 = icmp eq i32 %52, 0
  %54 = select i1 %53, i32 1, i32 0
  store i32 %54, ptr %7, align 4
  store i32 1, ptr %16, align 4
  br label %55

55:                                               ; preds = %51, %19
  call void @llvm.lifetime.end.p0(i64 8, ptr %15) #9
  call void @llvm.lifetime.end.p0(i64 4, ptr %14) #9
  %56 = load i32, ptr %7, align 4
  ret i32 %56
}

; Function Attrs: nounwind uwtable
define dso_local i32 @onig_set_callout_data_by_callout_args_self(ptr noundef %0, i32 noundef %1, i32 noundef %2, ptr noundef %3) #0 {
  %5 = alloca ptr, align 8
  %6 = alloca i32, align 4
  %7 = alloca i32, align 4
  %8 = alloca ptr, align 8
  store ptr %0, ptr %5, align 8, !tbaa !45
  store i32 %1, ptr %6, align 4, !tbaa !9
  store i32 %2, ptr %7, align 4, !tbaa !9
  store ptr %3, ptr %8, align 8, !tbaa !17
  %9 = load ptr, ptr %5, align 8, !tbaa !45
  %10 = getelementptr inbounds nuw %struct.OnigCalloutArgsStruct, ptr %9, i32 0, i32 3
  %11 = load ptr, ptr %10, align 8, !tbaa !61
  %12 = load ptr, ptr %5, align 8, !tbaa !45
  %13 = getelementptr inbounds nuw %struct.OnigCalloutArgsStruct, ptr %12, i32 0, i32 10
  %14 = load ptr, ptr %13, align 8, !tbaa !47
  %15 = getelementptr inbounds nuw %struct.MatchArg, ptr %14, i32 0, i32 10
  %16 = load ptr, ptr %15, align 8, !tbaa !52
  %17 = load ptr, ptr %5, align 8, !tbaa !45
  %18 = getelementptr inbounds nuw %struct.OnigCalloutArgsStruct, ptr %17, i32 0, i32 2
  %19 = load i32, ptr %18, align 8, !tbaa !54
  %20 = load i32, ptr %6, align 4, !tbaa !9
  %21 = load i32, ptr %7, align 4, !tbaa !9
  %22 = load ptr, ptr %8, align 8, !tbaa !17
  %23 = call i32 @onig_set_callout_data(ptr noundef %11, ptr noundef %16, i32 noundef %19, i32 noundef %20, i32 noundef %21, ptr noundef %22)
  ret i32 %23
}

; Function Attrs: nounwind uwtable
define dso_local i32 @onig_get_callout_data_by_callout_args_self_dont_clear_old(ptr noundef %0, i32 noundef %1, ptr noundef %2, ptr noundef %3) #0 {
  %5 = alloca ptr, align 8
  %6 = alloca i32, align 4
  %7 = alloca ptr, align 8
  %8 = alloca ptr, align 8
  store ptr %0, ptr %5, align 8, !tbaa !45
  store i32 %1, ptr %6, align 4, !tbaa !9
  store ptr %2, ptr %7, align 8, !tbaa !17
  store ptr %3, ptr %8, align 8, !tbaa !17
  %9 = load ptr, ptr %5, align 8, !tbaa !45
  %10 = getelementptr inbounds nuw %struct.OnigCalloutArgsStruct, ptr %9, i32 0, i32 3
  %11 = load ptr, ptr %10, align 8, !tbaa !61
  %12 = load ptr, ptr %5, align 8, !tbaa !45
  %13 = getelementptr inbounds nuw %struct.OnigCalloutArgsStruct, ptr %12, i32 0, i32 10
  %14 = load ptr, ptr %13, align 8, !tbaa !47
  %15 = getelementptr inbounds nuw %struct.MatchArg, ptr %14, i32 0, i32 10
  %16 = load ptr, ptr %15, align 8, !tbaa !52
  %17 = load ptr, ptr %5, align 8, !tbaa !45
  %18 = getelementptr inbounds nuw %struct.OnigCalloutArgsStruct, ptr %17, i32 0, i32 2
  %19 = load i32, ptr %18, align 8, !tbaa !54
  %20 = load i32, ptr %6, align 4, !tbaa !9
  %21 = load ptr, ptr %7, align 8, !tbaa !17
  %22 = load ptr, ptr %8, align 8, !tbaa !17
  %23 = call i32 @onig_get_callout_data_dont_clear_old(ptr noundef %11, ptr noundef %16, i32 noundef %19, i32 noundef %20, ptr noundef %21, ptr noundef %22)
  ret i32 %23
}

; Function Attrs: nounwind uwtable
define dso_local i32 @onig_get_arg_by_callout_args(ptr noundef %0, i32 noundef %1, ptr noundef %2, ptr noundef %3) #0 {
  %5 = alloca i32, align 4
  %6 = alloca ptr, align 8
  %7 = alloca i32, align 4
  %8 = alloca ptr, align 8
  %9 = alloca ptr, align 8
  %10 = alloca i32, align 4
  %11 = alloca ptr, align 8
  %12 = alloca i32, align 4
  store ptr %0, ptr %6, align 8, !tbaa !45
  store i32 %1, ptr %7, align 4, !tbaa !9
  store ptr %2, ptr %8, align 8, !tbaa !17
  store ptr %3, ptr %9, align 8, !tbaa !17
  call void @llvm.lifetime.start.p0(i64 4, ptr %10) #9
  call void @llvm.lifetime.start.p0(i64 8, ptr %11) #9
  %13 = load ptr, ptr %6, align 8, !tbaa !45
  %14 = getelementptr inbounds nuw %struct.OnigCalloutArgsStruct, ptr %13, i32 0, i32 2
  %15 = load i32, ptr %14, align 8, !tbaa !54
  store i32 %15, ptr %10, align 4, !tbaa !9
  %16 = load ptr, ptr %6, align 8, !tbaa !45
  %17 = getelementptr inbounds nuw %struct.OnigCalloutArgsStruct, ptr %16, i32 0, i32 3
  %18 = load ptr, ptr %17, align 8, !tbaa !61
  %19 = load i32, ptr %10, align 4, !tbaa !9
  %20 = call ptr @onig_reg_callout_list_at(ptr noundef %18, i32 noundef %19)
  store ptr %20, ptr %11, align 8, !tbaa !17
  %21 = load ptr, ptr %11, align 8, !tbaa !17
  %22 = icmp eq ptr %21, null
  br i1 %22, label %23, label %24

23:                                               ; preds = %4
  store i32 -30, ptr %5, align 4
  store i32 1, ptr %12, align 4
  br label %54

24:                                               ; preds = %4
  %25 = load ptr, ptr %11, align 8, !tbaa !17
  %26 = getelementptr inbounds nuw %struct.CalloutListEntry, ptr %25, i32 0, i32 1
  %27 = load i32, ptr %26, align 4, !tbaa !214
  %28 = icmp eq i32 %27, 1
  br i1 %28, label %29, label %53

29:                                               ; preds = %24
  %30 = load ptr, ptr %8, align 8, !tbaa !17
  %31 = icmp ne ptr %30, null
  br i1 %31, label %32, label %41

32:                                               ; preds = %29
  %33 = load ptr, ptr %11, align 8, !tbaa !17
  %34 = getelementptr inbounds nuw %struct.CalloutListEntry, ptr %33, i32 0, i32 9
  %35 = getelementptr inbounds nuw %struct.anon.2, ptr %34, i32 0, i32 2
  %36 = load i32, ptr %7, align 4, !tbaa !9
  %37 = sext i32 %36 to i64
  %38 = getelementptr inbounds [4 x i32], ptr %35, i64 0, i64 %37
  %39 = load i32, ptr %38, align 4, !tbaa !59
  %40 = load ptr, ptr %8, align 8, !tbaa !17
  store i32 %39, ptr %40, align 4, !tbaa !9
  br label %41

41:                                               ; preds = %32, %29
  %42 = load ptr, ptr %9, align 8, !tbaa !17
  %43 = icmp ne ptr %42, null
  br i1 %43, label %44, label %52

44:                                               ; preds = %41
  %45 = load ptr, ptr %9, align 8, !tbaa !17
  %46 = load ptr, ptr %11, align 8, !tbaa !17
  %47 = getelementptr inbounds nuw %struct.CalloutListEntry, ptr %46, i32 0, i32 9
  %48 = getelementptr inbounds nuw %struct.anon.2, ptr %47, i32 0, i32 3
  %49 = load i32, ptr %7, align 4, !tbaa !9
  %50 = sext i32 %49 to i64
  %51 = getelementptr inbounds [4 x %union.OnigValue], ptr %48, i64 0, i64 %50
  call void @llvm.memcpy.p0.p0.i64(ptr align 8 %45, ptr align 8 %51, i64 16, i1 false), !tbaa.struct !58
  br label %52

52:                                               ; preds = %44, %41
  store i32 0, ptr %5, align 4
  store i32 1, ptr %12, align 4
  br label %54

53:                                               ; preds = %24
  store i32 -30, ptr %5, align 4
  store i32 1, ptr %12, align 4
  br label %54

54:                                               ; preds = %53, %52, %23
  call void @llvm.lifetime.end.p0(i64 8, ptr %11) #9
  call void @llvm.lifetime.end.p0(i64 4, ptr %10) #9
  %55 = load i32, ptr %5, align 4
  ret i32 %55
}

; Function Attrs: nounwind uwtable
define dso_local i32 @onig_builtin_total_count(ptr noundef %0, ptr noundef %1) #0 {
  %3 = alloca i32, align 4
  %4 = alloca ptr, align 8
  %5 = alloca ptr, align 8
  %6 = alloca i32, align 4
  %7 = alloca i32, align 4
  %8 = alloca i32, align 4
  %9 = alloca %union.OnigValue, align 8
  %10 = alloca %union.OnigValue, align 8
  %11 = alloca i32, align 4
  %12 = alloca i32, align 4
  store ptr %0, ptr %4, align 8, !tbaa !45
  store ptr %1, ptr %5, align 8, !tbaa !17
  call void @llvm.lifetime.start.p0(i64 4, ptr %6) #9
  call void @llvm.lifetime.start.p0(i64 4, ptr %7) #9
  call void @llvm.lifetime.start.p0(i64 4, ptr %8) #9
  call void @llvm.lifetime.start.p0(i64 16, ptr %9) #9
  call void @llvm.lifetime.start.p0(i64 16, ptr %10) #9
  call void @llvm.lifetime.start.p0(i64 4, ptr %11) #9
  %13 = load ptr, ptr %4, align 8, !tbaa !45
  %14 = call i32 @onig_get_arg_by_callout_args(ptr noundef %13, i32 noundef 0, ptr noundef %8, ptr noundef %10)
  store i32 %14, ptr %6, align 4, !tbaa !9
  %15 = load i32, ptr %6, align 4, !tbaa !9
  %16 = icmp ne i32 %15, 0
  br i1 %16, label %17, label %19

17:                                               ; preds = %2
  %18 = load i32, ptr %6, align 4, !tbaa !9
  store i32 %18, ptr %3, align 4
  store i32 1, ptr %12, align 4
  br label %99

19:                                               ; preds = %2
  %20 = load i32, ptr %10, align 8, !tbaa !59
  store i32 %20, ptr %11, align 4, !tbaa !9
  %21 = load i32, ptr %11, align 4, !tbaa !9
  %22 = icmp ne i32 %21, 62
  br i1 %22, label %23, label %30

23:                                               ; preds = %19
  %24 = load i32, ptr %11, align 4, !tbaa !9
  %25 = icmp ne i32 %24, 88
  br i1 %25, label %26, label %30

26:                                               ; preds = %23
  %27 = load i32, ptr %11, align 4, !tbaa !9
  %28 = icmp ne i32 %27, 60
  br i1 %28, label %29, label %30

29:                                               ; preds = %26
  store i32 -232, ptr %3, align 4
  store i32 1, ptr %12, align 4
  br label %99

30:                                               ; preds = %26, %23, %19
  %31 = load ptr, ptr %4, align 8, !tbaa !45
  %32 = call i32 @onig_get_callout_data_by_callout_args_self_dont_clear_old(ptr noundef %31, i32 noundef 0, ptr noundef %8, ptr noundef %9)
  store i32 %32, ptr %6, align 4, !tbaa !9
  %33 = load i32, ptr %6, align 4, !tbaa !9
  %34 = icmp slt i32 %33, 0
  br i1 %34, label %35, label %37

35:                                               ; preds = %30
  %36 = load i32, ptr %6, align 4, !tbaa !9
  store i32 %36, ptr %3, align 4
  store i32 1, ptr %12, align 4
  br label %99

37:                                               ; preds = %30
  %38 = load i32, ptr %6, align 4, !tbaa !9
  %39 = icmp sgt i32 %38, 0
  br i1 %39, label %40, label %41

40:                                               ; preds = %37
  store i64 0, ptr %9, align 8, !tbaa !59
  br label %41

41:                                               ; preds = %40, %37
  br label %42

42:                                               ; preds = %41
  %43 = load ptr, ptr %4, align 8, !tbaa !45
  %44 = getelementptr inbounds nuw %struct.OnigCalloutArgsStruct, ptr %43, i32 0, i32 0
  %45 = load i32, ptr %44, align 8, !tbaa !160
  %46 = icmp eq i32 %45, 2
  br i1 %46, label %47, label %61

47:                                               ; preds = %42
  store i32 2, ptr %7, align 4, !tbaa !9
  %48 = load i32, ptr %11, align 4, !tbaa !9
  %49 = icmp eq i32 %48, 60
  br i1 %49, label %50, label %53

50:                                               ; preds = %47
  %51 = load i64, ptr %9, align 8, !tbaa !59
  %52 = add nsw i64 %51, 1
  store i64 %52, ptr %9, align 8, !tbaa !59
  br label %60

53:                                               ; preds = %47
  %54 = load i32, ptr %11, align 4, !tbaa !9
  %55 = icmp eq i32 %54, 88
  br i1 %55, label %56, label %59

56:                                               ; preds = %53
  %57 = load i64, ptr %9, align 8, !tbaa !59
  %58 = add nsw i64 %57, -1
  store i64 %58, ptr %9, align 8, !tbaa !59
  br label %59

59:                                               ; preds = %56, %53
  br label %60

60:                                               ; preds = %59, %50
  br label %68

61:                                               ; preds = %42
  store i32 1, ptr %7, align 4, !tbaa !9
  %62 = load i32, ptr %11, align 4, !tbaa !9
  %63 = icmp ne i32 %62, 60
  br i1 %63, label %64, label %67

64:                                               ; preds = %61
  %65 = load i64, ptr %9, align 8, !tbaa !59
  %66 = add nsw i64 %65, 1
  store i64 %66, ptr %9, align 8, !tbaa !59
  br label %67

67:                                               ; preds = %64, %61
  br label %68

68:                                               ; preds = %67, %60
  %69 = load ptr, ptr %4, align 8, !tbaa !45
  %70 = call i32 @onig_set_callout_data_by_callout_args_self(ptr noundef %69, i32 noundef 0, i32 noundef 1, ptr noundef %9)
  store i32 %70, ptr %6, align 4, !tbaa !9
  %71 = load i32, ptr %6, align 4, !tbaa !9
  %72 = icmp ne i32 %71, 0
  br i1 %72, label %73, label %75

73:                                               ; preds = %68
  %74 = load i32, ptr %6, align 4, !tbaa !9
  store i32 %74, ptr %3, align 4
  store i32 1, ptr %12, align 4
  br label %99

75:                                               ; preds = %68
  %76 = load ptr, ptr %4, align 8, !tbaa !45
  %77 = load i32, ptr %7, align 4, !tbaa !9
  %78 = call i32 @onig_get_callout_data_by_callout_args_self_dont_clear_old(ptr noundef %76, i32 noundef %77, ptr noundef %8, ptr noundef %9)
  store i32 %78, ptr %6, align 4, !tbaa !9
  %79 = load i32, ptr %6, align 4, !tbaa !9
  %80 = icmp slt i32 %79, 0
  br i1 %80, label %81, label %83

81:                                               ; preds = %75
  %82 = load i32, ptr %6, align 4, !tbaa !9
  store i32 %82, ptr %3, align 4
  store i32 1, ptr %12, align 4
  br label %99

83:                                               ; preds = %75
  %84 = load i32, ptr %6, align 4, !tbaa !9
  %85 = icmp sgt i32 %84, 0
  br i1 %85, label %86, label %87

86:                                               ; preds = %83
  store i64 0, ptr %9, align 8, !tbaa !59
  br label %87

87:                                               ; preds = %86, %83
  br label %88

88:                                               ; preds = %87
  %89 = load i64, ptr %9, align 8, !tbaa !59
  %90 = add nsw i64 %89, 1
  store i64 %90, ptr %9, align 8, !tbaa !59
  %91 = load ptr, ptr %4, align 8, !tbaa !45
  %92 = load i32, ptr %7, align 4, !tbaa !9
  %93 = call i32 @onig_set_callout_data_by_callout_args_self(ptr noundef %91, i32 noundef %92, i32 noundef 1, ptr noundef %9)
  store i32 %93, ptr %6, align 4, !tbaa !9
  %94 = load i32, ptr %6, align 4, !tbaa !9
  %95 = icmp ne i32 %94, 0
  br i1 %95, label %96, label %98

96:                                               ; preds = %88
  %97 = load i32, ptr %6, align 4, !tbaa !9
  store i32 %97, ptr %3, align 4
  store i32 1, ptr %12, align 4
  br label %99

98:                                               ; preds = %88
  store i32 0, ptr %3, align 4
  store i32 1, ptr %12, align 4
  br label %99

99:                                               ; preds = %98, %96, %81, %73, %35, %29, %17
  call void @llvm.lifetime.end.p0(i64 4, ptr %11) #9
  call void @llvm.lifetime.end.p0(i64 16, ptr %10) #9
  call void @llvm.lifetime.end.p0(i64 16, ptr %9) #9
  call void @llvm.lifetime.end.p0(i64 4, ptr %8) #9
  call void @llvm.lifetime.end.p0(i64 4, ptr %7) #9
  call void @llvm.lifetime.end.p0(i64 4, ptr %6) #9
  %100 = load i32, ptr %3, align 4
  ret i32 %100
}