; Function Attrs: nounwind uwtable
define dso_local range(i32 -232, 1) i32 @onig_builtin_total_count(ptr noundef readonly captures(none) %0, ptr readnone captures(none) %1) local_unnamed_addr #4 {
  %3 = getelementptr inbounds nuw i8, ptr %0, i64 8
  %4 = load i32, ptr %3, align 8, !tbaa !52
  %5 = getelementptr inbounds nuw i8, ptr %0, i64 16
  %6 = load ptr, ptr %5, align 8, !tbaa !156
  %7 = tail call ptr @onig_reg_callout_list_at(ptr noundef %6, i32 noundef %4) #30
  %8 = icmp eq ptr %7, null
  br i1 %8, label %onig_get_arg_by_callout_args.exit.thread, label %9

9:                                                ; preds = %2
  %10 = getelementptr inbounds nuw i8, ptr %7, i64 4
  %11 = load i32, ptr %10, align 4, !tbaa !208
  %12 = icmp eq i32 %11, 1
  br i1 %12, label %13, label %onig_get_arg_by_callout_args.exit.thread

13:                                               ; preds = %9
  %14 = getelementptr inbounds nuw i8, ptr %7, i64 80
  %.sroa.0.0.copyload = load i32, ptr %14, align 8
  %.not = icmp ne i32 %.sroa.0.0.copyload, 60
  switch i32 %.sroa.0.0.copyload, label %onig_get_arg_by_callout_args.exit.thread [
    i32 88, label %15
    i32 62, label %15
    i32 60, label %15
  ]

15:                                               ; preds = %13, %13, %13
  %16 = load i32, ptr %3, align 8, !tbaa !52
  %17 = icmp slt i32 %16, 1
  br i1 %17, label %onig_get_arg_by_callout_args.exit.thread, label %onig_get_callout_data_by_callout_args_self_dont_clear_old.exit

onig_get_callout_data_by_callout_args_self_dont_clear_old.exit: ; preds = %15
  %18 = getelementptr inbounds nuw i8, ptr %0, i64 72
  %19 = load ptr, ptr %18, align 8, !tbaa !43
  %20 = getelementptr inbounds nuw i8, ptr %19, i64 72
  %21 = load ptr, ptr %20, align 8, !tbaa !48
  %22 = getelementptr inbounds nuw i8, ptr %21, i64 56
  %23 = load ptr, ptr %22, align 8, !tbaa !41
  %24 = zext nneg i32 %16 to i64
  %25 = getelementptr %struct.CalloutData, ptr %23, i64 %24
  %26 = getelementptr i8, ptr %25, i64 -120
  %27 = load i32, ptr %26, align 8, !tbaa !53
  %28 = getelementptr i8, ptr %25, i64 -112
  %.sroa.046.0.copyload = load i64, ptr %28, align 8
  %.not68 = icmp eq i32 %27, 0
  %.sroa.046.0 = select i1 %.not68, i64 0, i64 %.sroa.046.0.copyload
  %29 = load i32, ptr %0, align 8, !tbaa !154
  %30 = icmp eq i32 %29, 2
  br i1 %30, label %31, label %36

31:                                               ; preds = %onig_get_callout_data_by_callout_args_self_dont_clear_old.exit
  switch i32 %.sroa.0.0.copyload, label %38 [
    i32 60, label %32
    i32 88, label %34
  ]

32:                                               ; preds = %31
  %33 = add nsw i64 %.sroa.046.0, 1
  br label %38

34:                                               ; preds = %31
  %35 = add nsw i64 %.sroa.046.0, -1
  br label %38

36:                                               ; preds = %onig_get_callout_data_by_callout_args_self_dont_clear_old.exit
  %37 = zext i1 %.not to i64
  %spec.select = add nsw i64 %.sroa.046.0, %37
  br label %38

38:                                               ; preds = %36, %34, %32, %31
  %.sroa.046.1 = phi i64 [ %.sroa.046.0, %31 ], [ %35, %34 ], [ %33, %32 ], [ %spec.select, %36 ]
  %.029 = phi i64 [ 2, %31 ], [ 2, %34 ], [ 2, %32 ], [ 1, %36 ]
  %39 = getelementptr i8, ptr %25, i64 -128
  store i32 1, ptr %26, align 8, !tbaa !53
  store i64 %.sroa.046.1, ptr %28, align 8
  %40 = getelementptr inbounds nuw i8, ptr %21, i64 48
  %41 = load i32, ptr %40, align 8, !tbaa !40
  store i32 %41, ptr %39, align 8, !tbaa !53
  %42 = load i32, ptr %3, align 8, !tbaa !52
  %43 = icmp slt i32 %42, 1
  br i1 %43, label %onig_get_arg_by_callout_args.exit.thread, label %onig_get_callout_data_by_callout_args_self_dont_clear_old.exit43

onig_get_callout_data_by_callout_args_self_dont_clear_old.exit43: ; preds = %38
  %44 = load ptr, ptr %18, align 8, !tbaa !43
  %45 = getelementptr inbounds nuw i8, ptr %44, i64 72
  %46 = load ptr, ptr %45, align 8, !tbaa !48
  %47 = getelementptr inbounds nuw i8, ptr %46, i64 56
  %48 = load ptr, ptr %47, align 8, !tbaa !41
  %49 = zext nneg i32 %42 to i64
  %50 = getelementptr %struct.CalloutData, ptr %48, i64 %49
  %51 = getelementptr i8, ptr %50, i64 -120
  %52 = getelementptr inbounds nuw [5 x %struct.anon], ptr %51, i64 0, i64 %.029
  %53 = load i32, ptr %52, align 8, !tbaa !53
  %54 = getelementptr inbounds nuw i8, ptr %52, i64 8
  %.sroa.046.0.copyload51 = load i64, ptr %54, align 8
  %.not69 = icmp eq i32 %53, 0
  %55 = add nsw i64 %.sroa.046.0.copyload51, 1
  %56 = select i1 %.not69, i64 1, i64 %55
  %57 = getelementptr i8, ptr %50, i64 -128
  store i32 1, ptr %52, align 8, !tbaa !53
  store i64 %56, ptr %54, align 8
  %58 = getelementptr inbounds nuw i8, ptr %46, i64 48
  %59 = load i32, ptr %58, align 8, !tbaa !40
  store i32 %59, ptr %57, align 8, !tbaa !53
  br label %onig_get_arg_by_callout_args.exit.thread

onig_get_arg_by_callout_args.exit.thread:         ; preds = %38, %15, %9, %2, %onig_get_callout_data_by_callout_args_self_dont_clear_old.exit43, %13
  %.0 = phi i32 [ -232, %13 ], [ 0, %onig_get_callout_data_by_callout_args_self_dont_clear_old.exit43 ], [ -30, %2 ], [ -30, %9 ], [ -30, %15 ], [ -30, %38 ]
  ret i32 %.0
}